; Function Attrs: mustprogress uwtable
define hidden noundef i64 @_ZNK6google8protobuf21MethodDescriptorProto12ByteSizeLongEv(ptr noundef nonnull align 8 dereferenceable(64) %0) unnamed_addr #3 align 2 {
  %2 = getelementptr inbounds nuw i8, ptr %0, i64 16
  %3 = load i32, ptr %2, align 8, !tbaa !58
  %4 = and i32 %3, 63
  %.not = icmp eq i32 %4, 0
  br i1 %.not, label %89, label %5

5:                                                ; preds = %1
  %6 = and i32 %3, 1
  %.not14 = icmp eq i32 %6, 0
  br i1 %.not14, label %25, label %7

7:                                                ; preds = %5
  %8 = getelementptr inbounds nuw i8, ptr %0, i64 24
  %9 = load ptr, ptr %8, align 8, !tbaa !84
  %10 = ptrtoint ptr %9 to i64
  %11 = and i64 %10, -2
  %12 = inttoptr i64 %11 to ptr
  %13 = getelementptr inbounds nuw i8, ptr %12, i64 8
  %14 = load i64, ptr %13, align 8, !tbaa !85
  %15 = trunc i64 %14 to i32
  %16 = or i32 %15, 1
  %17 = tail call range(i32 0, 33) i32 @llvm.ctlz.i32(i32 %16, i1 true)
  %18 = xor i32 %17, 31
  %19 = mul nuw nsw i32 %18, 9
  %20 = add nuw nsw i32 %19, 73
  %21 = lshr i32 %20, 6
  %22 = zext nneg i32 %21 to i64
  %23 = add i64 %14, 1
  %24 = add i64 %23, %22
  br label %25

25:                                               ; preds = %7, %5
  %.1 = phi i64 [ %24, %7 ], [ 0, %5 ]
  %26 = and i32 %3, 2
  %.not15 = icmp eq i32 %26, 0
  br i1 %.not15, label %46, label %27

27:                                               ; preds = %25
  %28 = getelementptr inbounds nuw i8, ptr %0, i64 32
  %29 = load ptr, ptr %28, align 8, !tbaa !84
  %30 = ptrtoint ptr %29 to i64
  %31 = and i64 %30, -2
  %32 = inttoptr i64 %31 to ptr
  %33 = getelementptr inbounds nuw i8, ptr %32, i64 8
  %34 = load i64, ptr %33, align 8, !tbaa !85
  %35 = trunc i64 %34 to i32
  %36 = or i32 %35, 1
  %37 = tail call range(i32 0, 33) i32 @llvm.ctlz.i32(i32 %36, i1 true)
  %38 = xor i32 %37, 31
  %39 = mul nuw nsw i32 %38, 9
  %40 = add nuw nsw i32 %39, 73
  %41 = lshr i32 %40, 6
  %42 = zext nneg i32 %41 to i64
  %43 = add i64 %.1, 1
  %44 = add i64 %43, %34
  %45 = add i64 %44, %42
  br label %46

46:                                               ; preds = %27, %25
  %.2 = phi i64 [ %45, %27 ], [ %.1, %25 ]
  %47 = and i32 %3, 4
  %.not16 = icmp eq i32 %47, 0
  br i1 %.not16, label %67, label %48

48:                                               ; preds = %46
  %49 = getelementptr inbounds nuw i8, ptr %0, i64 40
  %50 = load ptr, ptr %49, align 8, !tbaa !84
  %51 = ptrtoint ptr %50 to i64
  %52 = and i64 %51, -2
  %53 = inttoptr i64 %52 to ptr
  %54 = getelementptr inbounds nuw i8, ptr %53, i64 8
  %55 = load i64, ptr %54, align 8, !tbaa !85
  %56 = trunc i64 %55 to i32
  %57 = or i32 %56, 1
  %58 = tail call range(i32 0, 33) i32 @llvm.ctlz.i32(i32 %57, i1 true)
  %59 = xor i32 %58, 31
  %60 = mul nuw nsw i32 %59, 9
  %61 = add nuw nsw i32 %60, 73
  %62 = lshr i32 %61, 6
  %63 = zext nneg i32 %62 to i64
  %64 = add i64 %.2, 1
  %65 = add i64 %64, %55
  %66 = add i64 %65, %63
  br label %67

67:                                               ; preds = %48, %46
  %.3 = phi i64 [ %66, %48 ], [ %.2, %46 ]
  %68 = and i32 %3, 8
  %.not17 = icmp eq i32 %68, 0
  br i1 %.not17, label %84, label %69

69:                                               ; preds = %67
  %70 = getelementptr inbounds nuw i8, ptr %0, i64 48
  %71 = load ptr, ptr %70, align 8, !tbaa !360
  %72 = tail call noundef i64 @_ZNK6google8protobuf13MethodOptions12ByteSizeLongEv(ptr noundef nonnull align 8 dereferenceable(80) %71)
  %73 = trunc i64 %72 to i32
  %74 = or i32 %73, 1
  %75 = tail call range(i32 0, 33) i32 @llvm.ctlz.i32(i32 %74, i1 true)
  %76 = xor i32 %75, 31
  %77 = mul nuw nsw i32 %76, 9
  %78 = add nuw nsw i32 %77, 73
  %79 = lshr i32 %78, 6
  %80 = zext nneg i32 %79 to i64
  %81 = add i64 %.3, 1
  %82 = add i64 %81, %72
  %83 = add i64 %82, %80
  br label %84

84:                                               ; preds = %69, %67
  %.4 = phi i64 [ %83, %69 ], [ %.3, %67 ]
  %85 = lshr i32 %3, 3
  %86 = and i32 %85, 2
  %87 = lshr i32 %3, 4
  %88 = and i32 %87, 2
  %narrow = add nuw nsw i32 %88, %86
  %spec.select = zext nneg i32 %narrow to i64
  %spec.select20 = add i64 %.4, %spec.select
  br label %89

89:                                               ; preds = %84, %1
  %.0 = phi i64 [ 0, %1 ], [ %spec.select20, %84 ]
  %90 = getelementptr inbounds nuw i8, ptr %0, i64 20
  %91 = tail call noundef i64 @_ZNK6google8protobuf7Message29MaybeComputeUnknownFieldsSizeEmPNS0_8internal10CachedSizeE(ptr noundef nonnull align 8 dereferenceable(16) %0, i64 noundef %.0, ptr noundef nonnull %90)
  ret i64 %91
}